target datalayout = "e-m:e-p270:32:32-p271:32:32-p272:64:64-i64:64-i128:128-f80:128-n8:16:32:64-S128"
target triple = "x86_64-pc-linux-gnu"

%struct.pmix_ptl_module_t = type { ptr, ptr, ptr, ptr, ptr, ptr, ptr, ptr, ptr }
%struct.pmix_ptl_base_t = type { i8, i8, %struct.pmix_list_t, %struct.pmix_list_t, %struct.pmix_listener_t, ptr, i32, i64, ptr, ptr, ptr, ptr, ptr, ptr, ptr, ptr, ptr, ptr, ptr, ptr, i8, i8, i8, i8, i8, i8, i8, i8, i8, i8, i8, i8, i8, i8, ptr, ptr, i32, i8, i32, i8, i32, i32, i32, i32 }
%struct.pmix_list_t = type { %struct.pmix_object_t, %struct.pmix_list_item_t, i64 }
%struct.pmix_object_t = type { %union.pthread_mutex_t, ptr, i32, %struct.pmix_tma }
%union.pthread_mutex_t = type { %struct.__pthread_mutex_s }
%struct.__pthread_mutex_s = type { i32, i32, i32, i32, i32, i16, i16, %struct.__pthread_internal_list }
%struct.__pthread_internal_list = type { ptr, ptr }
%struct.pmix_tma = type { ptr, ptr, ptr, ptr, ptr, ptr, ptr, ptr }
%struct.pmix_list_item_t = type { %struct.pmix_object_t, ptr, ptr, i32 }
%struct.pmix_listener_t = type { %struct.pmix_list_item_t, %struct.event, i8, i16, i32, ptr, ptr, i32, i8, i32, i8, i32, ptr }
%struct.event = type { %struct.event_callback, %union.anon.0, i32, ptr, %union.anon.2, i16, i16, %struct.timeval }
%struct.event_callback = type { %struct.anon, i16, i8, i8, %union.anon, ptr }
%struct.anon = type { ptr, ptr }
%union.anon = type { ptr }
%union.anon.0 = type { %struct.anon.1 }
%struct.anon.1 = type { ptr, ptr }
%union.anon.2 = type { %struct.anon.3 }
%struct.anon.3 = type { %struct.anon.4, %struct.timeval }
%struct.anon.4 = type { ptr, ptr }
%struct.timeval = type { i64, i64 }
%struct.pmix_globals_t = type { i32, %struct.pmix_proc, %struct.pmix_value, %struct.pmix_value, ptr, i32, i32, ptr, i32, i32, i32, i32, i32, ptr, ptr, i32, %struct.pmix_events_t, i8, i8, %struct.timeval, %struct.pmix_list_t, %struct.pmix_pointer_array_t, i32, i32, %struct.pmix_hotel_t, i8, %struct.pmix_list_t, i8, i8, i8, i64, %struct.pmix_list_t, %struct.pmix_topology_t, %struct.pmix_cpuset_t, i8, i8, %struct.pmix_iof_flags_t, %struct.pmix_keyindex_t }
%struct.pmix_proc = type { [256 x i8], i32 }
%struct.pmix_value = type { i16, %union.anon.7 }
%union.anon.7 = type { %struct.pmix_envar_t }
%struct.pmix_envar_t = type { ptr, ptr, i8 }
%struct.pmix_events_t = type { %struct.pmix_object_t, i64, ptr, ptr, %struct.pmix_list_t, %struct.pmix_list_t, %struct.pmix_list_t, %struct.pmix_list_t }
%struct.pmix_pointer_array_t = type { %struct.pmix_object_t, i32, i32, i32, i32, i32, ptr, ptr }
%struct.pmix_hotel_t = type { %struct.pmix_object_t, i32, ptr, %struct.timeval, ptr, ptr, ptr, ptr, i32 }
%struct.pmix_topology_t = type { ptr, ptr }
%struct.pmix_cpuset_t = type { ptr, ptr }
%struct.pmix_iof_flags_t = type { i8, i8, i8, i8, i8, i8, i8, ptr, ptr, i8, i8, i8, i8, i8, i8 }
%struct.pmix_keyindex_t = type { %struct.pmix_object_t, ptr, i32 }

@setup_complete = internal global i8 0, align 1
@pmix_ptl = external global %struct.pmix_ptl_module_t, align 8
@pmix_ptl_base = external global %struct.pmix_ptl_base_t, align 8
@pmix_globals = external global %struct.pmix_globals_t, align 8

; Function Attrs: nounwind uwtable
define i32 @pmix_ptl_base_start_listening(ptr noundef %0, i64 noundef %1) #0 {
  %3 = alloca i32, align 4
  %4 = alloca ptr, align 8
  %5 = alloca i64, align 8
  %6 = alloca i32, align 4
  %7 = alloca i32, align 4
  store ptr %0, ptr %4, align 8, !tbaa !3
  store i64 %1, ptr %5, align 8, !tbaa !8
  call void @llvm.lifetime.start.p0(i64 4, ptr %6) #12
  %8 = load i8, ptr @setup_complete, align 1, !tbaa !10, !range !12, !noundef !13
  %9 = trunc i8 %8 to i1
  br i1 %9, label %20, label %10

10:                                               ; preds = %2
  %11 = load ptr, ptr getelementptr inbounds nuw (%struct.pmix_ptl_module_t, ptr @pmix_ptl, i32 0, i32 7), align 8, !tbaa !14
  %12 = load ptr, ptr %4, align 8, !tbaa !3
  %13 = load i64, ptr %5, align 8, !tbaa !8
  %14 = call i32 %11(ptr noundef %12, i64 noundef %13)
  store i32 %14, ptr %6, align 4, !tbaa !17
  %15 = load i32, ptr %6, align 4, !tbaa !17
  %16 = icmp ne i32 0, %15
  br i1 %16, label %17, label %19

17:                                               ; preds = %10
  %18 = load i32, ptr %6, align 4, !tbaa !17
  store i32 %18, ptr %3, align 4
  store i32 1, ptr %7, align 4
  br label %25

19:                                               ; preds = %10
  br label %20

20:                                               ; preds = %19, %2
  store i8 1, ptr @setup_complete, align 1, !tbaa !10
  %21 = load ptr, ptr getelementptr inbounds nuw (%struct.pmix_globals_t, ptr @pmix_globals, i32 0, i32 13), align 8, !tbaa !19
  %22 = load i32, ptr getelementptr inbounds nuw (%struct.pmix_listener_t, ptr getelementptr inbounds nuw (%struct.pmix_ptl_base_t, ptr @pmix_ptl_base, i32 0, i32 4), i32 0, i32 4), align 4, !tbaa !42
  %23 = call i32 @pmix_event_assign(ptr noundef getelementptr inbounds nuw (%struct.pmix_listener_t, ptr getelementptr inbounds nuw (%struct.pmix_ptl_base_t, ptr @pmix_ptl_base, i32 0, i32 4), i32 0, i32 1), ptr noundef %21, i32 noundef %22, i16 noundef signext 18, ptr noundef @connection_event_handler, ptr noundef null)
  store volatile i8 1, ptr getelementptr inbounds nuw (%struct.pmix_listener_t, ptr getelementptr inbounds nuw (%struct.pmix_ptl_base_t, ptr @pmix_ptl_base, i32 0, i32 4), i32 0, i32 2), align 8, !tbaa !51
  %24 = call i32 @event_add(ptr noundef getelementptr inbounds nuw (%struct.pmix_listener_t, ptr getelementptr inbounds nuw (%struct.pmix_ptl_base_t, ptr @pmix_ptl_base, i32 0, i32 4), i32 0, i32 1), ptr noundef null)
  store i32 0, ptr %3, align 4
  store i32 1, ptr %7, align 4
  br label %25

25:                                               ; preds = %20, %17
  call void @llvm.lifetime.end.p0(i64 4, ptr %6) #12
  %26 = load i32, ptr %3, align 4
  ret i32 %26
}