; Function Attrs: nounwind uwtable
define i32 @pmix_ptl_base_start_listening(ptr noundef %0, i64 noundef %1) local_unnamed_addr #0 {
  %.b5 = load i1, ptr @setup_complete, align 1
  br i1 %.b5, label %6, label %3

3:                                                ; preds = %2
  %4 = load ptr, ptr getelementptr inbounds nuw (i8, ptr @pmix_ptl, i64 56), align 8, !tbaa !3
  %5 = tail call i32 %4(ptr noundef %0, i64 noundef %1) #16
  %.not = icmp eq i32 %5, 0
  br i1 %.not, label %6, label %11

6:                                                ; preds = %3, %2
  store i1 true, ptr @setup_complete, align 1
  %7 = load ptr, ptr getelementptr inbounds nuw (i8, ptr @pmix_globals, i64 376), align 8, !tbaa !9
  %8 = load i32, ptr getelementptr inbounds nuw (i8, ptr @pmix_ptl_base, i64 828), align 4, !tbaa !35
  %9 = tail call i32 @pmix_event_assign(ptr noundef nonnull getelementptr inbounds nuw (i8, ptr @pmix_ptl_base, i64 696), ptr noundef %7, i32 noundef %8, i16 noundef signext 18, ptr noundef nonnull @connection_event_handler, ptr noundef null) #16
  store volatile i8 1, ptr getelementptr inbounds nuw (i8, ptr @pmix_ptl_base, i64 824), align 8, !tbaa !44
  %10 = tail call i32 @event_add(ptr noundef nonnull getelementptr inbounds nuw (i8, ptr @pmix_ptl_base, i64 696), ptr noundef null) #16
  br label %11

11:                                               ; preds = %3, %6
  %.0 = phi i32 [ 0, %6 ], [ %5, %3 ]
  ret i32 %.0
}